target datalayout = "e-m:e-p270:32:32-p271:32:32-p272:64:64-i64:64-i128:128-f80:128-n8:16:32:64-S128"
target triple = "x86_64-pc-linux-gnu"

; Function Attrs: nounwind uwtable
define i32 @ff_nal_parse_units(ptr noundef %0, ptr noundef %1, i32 noundef %2) #0 {
  %4 = alloca ptr, align 8
  %5 = alloca ptr, align 8
  %6 = alloca i32, align 4
  store ptr %0, ptr %4, align 8, !tbaa !16
  store ptr %1, ptr %5, align 8, !tbaa !4
  store i32 %2, ptr %6, align 4, !tbaa !12
  %7 = load ptr, ptr %4, align 8, !tbaa !16
  %8 = load ptr, ptr %5, align 8, !tbaa !4
  %9 = load i32, ptr %6, align 4, !tbaa !12
  %10 = call i32 @nal_parse_units(ptr noundef %7, ptr noundef null, ptr noundef %8, i32 noundef %9)
  ret i32 %10
}

; Function Attrs: nounwind uwtable
define i32 @ff_nal_parse_units_buf(ptr noundef %0, ptr noundef %1, ptr noundef %2) #0 {
  %4 = alloca i32, align 4
  %5 = alloca ptr, align 8
  %6 = alloca ptr, align 8
  %7 = alloca ptr, align 8
  %8 = alloca ptr, align 8
  %9 = alloca i32, align 4
  %10 = alloca i32, align 4
  store ptr %0, ptr %5, align 8, !tbaa !4
  store ptr %1, ptr %6, align 8, !tbaa !33
  store ptr %2, ptr %7, align 8, !tbaa !36
  call void @llvm.lifetime.start.p0(i64 8, ptr %8) #5
  call void @llvm.lifetime.start.p0(i64 4, ptr %9) #5
  %11 = call i32 @avio_open_dyn_buf(ptr noundef %8)
  store i32 %11, ptr %9, align 4, !tbaa !12
  %12 = load i32, ptr %9, align 4, !tbaa !12
  %13 = icmp slt i32 %12, 0
  br i1 %13, label %14, label %16

14:                                               ; preds = %3
  %15 = load i32, ptr %9, align 4, !tbaa !12
  store i32 %15, ptr %4, align 4
  store i32 1, ptr %10, align 4
  br label %26

16:                                               ; preds = %3
  %17 = load ptr, ptr %8, align 8, !tbaa !16
  %18 = load ptr, ptr %5, align 8, !tbaa !4
  %19 = load ptr, ptr %7, align 8, !tbaa !36
  %20 = load i32, ptr %19, align 4, !tbaa !12
  %21 = call i32 @ff_nal_parse_units(ptr noundef %17, ptr noundef %18, i32 noundef %20)
  %22 = load ptr, ptr %8, align 8, !tbaa !16
  %23 = load ptr, ptr %6, align 8, !tbaa !33
  %24 = call i32 @avio_close_dyn_buf(ptr noundef %22, ptr noundef %23)
  %25 = load ptr, ptr %7, align 8, !tbaa !36
  store i32 %24, ptr %25, align 4, !tbaa !12
  store i32 0, ptr %4, align 4
  store i32 1, ptr %10, align 4
  br label %26

26:                                               ; preds = %16, %14
  call void @llvm.lifetime.end.p0(i64 4, ptr %9) #5
  call void @llvm.lifetime.end.p0(i64 8, ptr %8) #5
  %27 = load i32, ptr %4, align 4
  ret i32 %27
}