; Function Attrs: nounwind uwtable
define range(i32 -2147483648, 1) i32 @ff_nal_parse_units_buf(ptr noundef %0, ptr noundef %1, ptr noundef captures(none) %2) local_unnamed_addr #2 {
  %4 = alloca ptr, align 8
  call void @llvm.lifetime.start.p0(i64 8, ptr nonnull %4) #8
  %5 = call i32 @avio_open_dyn_buf(ptr noundef nonnull %4) #8
  %6 = icmp slt i32 %5, 0
  br i1 %6, label %13, label %7

7:                                                ; preds = %3
  %8 = load ptr, ptr %4, align 8, !tbaa !23
  %9 = load i32, ptr %2, align 4, !tbaa !18
  %10 = call fastcc i32 @nal_parse_units(ptr noundef %8, ptr noundef null, ptr noundef %0, i32 noundef %9)
  %11 = load ptr, ptr %4, align 8, !tbaa !23
  %12 = call i32 @avio_close_dyn_buf(ptr noundef %11, ptr noundef %1) #8
  store i32 %12, ptr %2, align 4, !tbaa !18
  br label %13

13:                                               ; preds = %3, %7
  %.0 = phi i32 [ 0, %7 ], [ %5, %3 ]
  call void @llvm.lifetime.end.p0(i64 8, ptr nonnull %4) #8
  ret i32 %.0
}